target datalayout = "e-m:e-p270:32:32-p271:32:32-p272:64:64-i64:64-i128:128-f80:128-n8:16:32:64-S128"
target triple = "x86_64-pc-linux-gnu"

; Function Attrs: nounwind uwtable
define dso_local i64 @SimpleLruShmemSize(i32 noundef %0, i32 noundef %1) #0 {
  %3 = alloca i32, align 4
  %4 = alloca i32, align 4
  %5 = alloca i32, align 4
  %6 = alloca i64, align 8
  store i32 %0, ptr %3, align 4
  store i32 %1, ptr %4, align 4
  call void @llvm.lifetime.start.p0(i64 4, ptr %5) #9
  %7 = load i32, ptr %3, align 4
  %8 = sdiv i32 %7, 16
  store i32 %8, ptr %5, align 4
  call void @llvm.lifetime.start.p0(i64 8, ptr %6) #9
  store i64 104, ptr %6, align 8
  %9 = load i32, ptr %3, align 4
  %10 = sext i32 %9 to i64
  %11 = mul i64 %10, 8
  %12 = add i64 %11, 7
  %13 = and i64 %12, -8
  %14 = load i64, ptr %6, align 8
  %15 = add i64 %14, %13
  store i64 %15, ptr %6, align 8
  %16 = load i32, ptr %3, align 4
  %17 = sext i32 %16 to i64
  %18 = mul i64 %17, 4
  %19 = add i64 %18, 7
  %20 = and i64 %19, -8
  %21 = load i64, ptr %6, align 8
  %22 = add i64 %21, %20
  store i64 %22, ptr %6, align 8
  %23 = load i32, ptr %3, align 4
  %24 = sext i32 %23 to i64
  %25 = mul i64 %24, 1
  %26 = add i64 %25, 7
  %27 = and i64 %26, -8
  %28 = load i64, ptr %6, align 8
  %29 = add i64 %28, %27
  store i64 %29, ptr %6, align 8
  %30 = load i32, ptr %3, align 4
  %31 = sext i32 %30 to i64
  %32 = mul i64 %31, 8
  %33 = add i64 %32, 7
  %34 = and i64 %33, -8
  %35 = load i64, ptr %6, align 8
  %36 = add i64 %35, %34
  store i64 %36, ptr %6, align 8
  %37 = load i32, ptr %3, align 4
  %38 = sext i32 %37 to i64
  %39 = mul i64 %38, 4
  %40 = add i64 %39, 7
  %41 = and i64 %40, -8
  %42 = load i64, ptr %6, align 8
  %43 = add i64 %42, %41
  store i64 %43, ptr %6, align 8
  %44 = load i32, ptr %3, align 4
  %45 = sext i32 %44 to i64
  %46 = mul i64 %45, 128
  %47 = add i64 %46, 7
  %48 = and i64 %47, -8
  %49 = load i64, ptr %6, align 8
  %50 = add i64 %49, %48
  store i64 %50, ptr %6, align 8
  %51 = load i32, ptr %5, align 4
  %52 = sext i32 %51 to i64
  %53 = mul i64 %52, 128
  %54 = add i64 %53, 7
  %55 = and i64 %54, -8
  %56 = load i64, ptr %6, align 8
  %57 = add i64 %56, %55
  store i64 %57, ptr %6, align 8
  %58 = load i32, ptr %5, align 4
  %59 = sext i32 %58 to i64
  %60 = mul i64 %59, 4
  %61 = add i64 %60, 7
  %62 = and i64 %61, -8
  %63 = load i64, ptr %6, align 8
  %64 = add i64 %63, %62
  store i64 %64, ptr %6, align 8
  %65 = load i32, ptr %4, align 4
  %66 = icmp sgt i32 %65, 0
  br i1 %66, label %67, label %77

67:                                               ; preds = %2
  %68 = load i32, ptr %3, align 4
  %69 = load i32, ptr %4, align 4
  %70 = mul i32 %68, %69
  %71 = sext i32 %70 to i64
  %72 = mul i64 %71, 8
  %73 = add i64 %72, 7
  %74 = and i64 %73, -8
  %75 = load i64, ptr %6, align 8
  %76 = add i64 %75, %74
  store i64 %76, ptr %6, align 8
  br label %77

77:                                               ; preds = %67, %2
  %78 = load i64, ptr %6, align 8
  %79 = add i64 %78, 31
  %80 = and i64 %79, -32
  %81 = load i32, ptr %3, align 4
  %82 = mul i32 8192, %81
  %83 = sext i32 %82 to i64
  %84 = add i64 %80, %83
  call void @llvm.lifetime.end.p0(i64 8, ptr %6) #9
  call void @llvm.lifetime.end.p0(i64 4, ptr %5) #9
  ret i64 %84
}