; Function Attrs: mustprogress nofree norecurse nosync nounwind willreturn memory(none) uwtable
define dso_local i64 @SimpleLruShmemSize(i32 noundef %0, i32 noundef %1) local_unnamed_addr #0 {
  %3 = sdiv i32 %0, 16
  %4 = sext i32 %0 to i64
  %5 = shl nsw i64 %4, 3
  %6 = add nsw i64 %4, 7
  %7 = and i64 %6, -8
  %8 = sext i32 %3 to i64
  %9 = add nsw i64 %8, %4
  %10 = shl nsw i64 %9, 7
  %11 = shl nsw i64 %8, 2
  %12 = add nsw i64 %11, 7
  %13 = and i64 %12, -8
  %14 = icmp sgt i32 %1, 0
  %15 = mul i32 %1, %0
  %16 = sext i32 %15 to i64
  %17 = shl nsw i64 %16, 3
  %18 = select i1 %14, i64 %17, i64 0
  %19 = shl nsw i64 %4, 4
  %20 = add nsw i64 %5, 14
  %21 = and i64 %20, -16
  %reass.mul = add nsw i64 %19, %21
  %22 = add nsw i64 %7, 135
  %23 = add nsw i64 %22, %10
  %24 = add nsw i64 %23, %13
  %.0 = add nsw i64 %24, %18
  %25 = add i64 %.0, %reass.mul
  %26 = and i64 %25, -32
  %27 = shl i32 %0, 13
  %28 = sext i32 %27 to i64
  %29 = add i64 %26, %28
  ret i64 %29
}